target datalayout = "e-m:e-p270:32:32-p271:32:32-p272:64:64-i64:64-i128:128-f80:128-n8:16:32:64-S128"
target triple = "x86_64-pc-linux-gnu"

%struct.HeapTupleData = type { i32, %struct.ItemPointerData, i32, ptr }
%struct.ItemPointerData = type { %struct.BlockIdData, i16 }
%struct.BlockIdData = type { i16, i16 }
%struct.xl_replorigin_drop = type { i16 }
%union.LWLockPadded = type { %struct.LWLock, [112 x i8] }
%struct.LWLock = type { i16, %struct.pg_atomic_uint32, %struct.proclist_head }
%struct.pg_atomic_uint32 = type { i32 }
%struct.proclist_head = type { i32, i32 }
%struct.ReplicationState = type { i16, i64, i64, i32, %struct.ConditionVariable, %struct.LWLock }
%struct.ConditionVariable = type { i8, %struct.proclist_head }

@.str.1 = private unnamed_addr constant [9 x i8] c"origin.c\00", align 1
@.str.3 = private unnamed_addr constant [54 x i8] c"cache lookup failed for replication origin with ID %d\00", align 1
@__func__.replorigin_drop_by_name = private unnamed_addr constant [24 x i8] c"replorigin_drop_by_name\00", align 1
@max_replication_slots = external global i32, align 4
@replication_states = internal global ptr null, align 8
@MainLWLockArray = external global ptr, align 8
@.str.31 = private unnamed_addr constant [63 x i8] c"could not drop replication origin with ID %d, in use by PID %d\00", align 1
@__func__.replorigin_state_clear = private unnamed_addr constant [23 x i8] c"replorigin_state_clear\00", align 1

; Function Attrs: nounwind uwtable
define internal void @replorigin_state_clear(i16 noundef zeroext %0, i1 noundef zeroext %1) #0 {
  %3 = alloca i16, align 2
  %4 = alloca i8, align 1
  %5 = alloca i32, align 4
  %6 = alloca ptr, align 8
  %7 = alloca ptr, align 8
  %8 = alloca i32, align 4
  %9 = alloca %struct.xl_replorigin_drop, align 2
  store i16 %0, ptr %3, align 2
  %10 = zext i1 %1 to i8
  store i8 %10, ptr %4, align 1
  call void @llvm.lifetime.start.p0(i64 4, ptr %5) #9
  br label %11

11:                                               ; preds = %75, %2
  %12 = load ptr, ptr @MainLWLockArray, align 8
  %13 = getelementptr inbounds %union.LWLockPadded, ptr %12, i64 40
  %14 = call zeroext i1 @LWLockAcquire(ptr noundef %13, i32 noundef 0)
  store i32 0, ptr %5, align 4
  br label %15

15:                                               ; preds = %78, %11
  %16 = load i32, ptr %5, align 4
  %17 = load i32, ptr @max_replication_slots, align 4
  %18 = icmp slt i32 %16, %17
  br i1 %18, label %19, label %81

19:                                               ; preds = %15
  call void @llvm.lifetime.start.p0(i64 8, ptr %6) #9
  %20 = load ptr, ptr @replication_states, align 8
  %21 = load i32, ptr %5, align 4
  %22 = sext i32 %21 to i64
  %23 = getelementptr inbounds %struct.ReplicationState, ptr %20, i64 %22
  store ptr %23, ptr %6, align 8
  %24 = load ptr, ptr %6, align 8
  %25 = getelementptr inbounds nuw %struct.ReplicationState, ptr %24, i32 0, i32 0
  %26 = load i16, ptr %25, align 8
  %27 = zext i16 %26 to i32
  %28 = load i16, ptr %3, align 2
  %29 = zext i16 %28 to i32
  %30 = icmp eq i32 %27, %29
  br i1 %30, label %31, label %74

31:                                               ; preds = %19
  %32 = load ptr, ptr %6, align 8
  %33 = getelementptr inbounds nuw %struct.ReplicationState, ptr %32, i32 0, i32 3
  %34 = load i32, ptr %33, align 8
  %35 = icmp ne i32 %34, 0
  br i1 %35, label %36, label %64

36:                                               ; preds = %31
  call void @llvm.lifetime.start.p0(i64 8, ptr %7) #9
  %37 = load i8, ptr %4, align 1, !range !4, !noundef !5
  %38 = trunc i8 %37 to i1
  br i1 %38, label %39, label %58

39:                                               ; preds = %36
  br label %40

40:                                               ; preds = %39
  br i1 true, label %41, label %43

41:                                               ; preds = %40
  %42 = call zeroext i1 @errstart_cold(i32 noundef 21, ptr noundef null) #10
  br i1 %42, label %45, label %55

43:                                               ; preds = %40
  %44 = call zeroext i1 @errstart(i32 noundef 21, ptr noundef null)
  br i1 %44, label %45, label %55

45:                                               ; preds = %43, %41
  %46 = call i32 @errcode(i32 noundef 100663621)
  %47 = load ptr, ptr %6, align 8
  %48 = getelementptr inbounds nuw %struct.ReplicationState, ptr %47, i32 0, i32 0
  %49 = load i16, ptr %48, align 8
  %50 = zext i16 %49 to i32
  %51 = load ptr, ptr %6, align 8
  %52 = getelementptr inbounds nuw %struct.ReplicationState, ptr %51, i32 0, i32 3
  %53 = load i32, ptr %52, align 8
  %54 = call i32 (ptr, ...) @errmsg(ptr noundef @.str.31, i32 noundef %50, i32 noundef %53)
  call void @errfinish(ptr noundef @.str.1, i32 noundef 371, ptr noundef @__func__.replorigin_state_clear)
  br label %55

55:                                               ; preds = %45, %43, %41
  unreachable

56:                                               ; No predecessors!
  br label %57

57:                                               ; preds = %56
  br label %58

58:                                               ; preds = %57, %36
  %59 = load ptr, ptr %6, align 8
  %60 = getelementptr inbounds nuw %struct.ReplicationState, ptr %59, i32 0, i32 4
  store ptr %60, ptr %7, align 8
  %61 = load ptr, ptr @MainLWLockArray, align 8
  %62 = getelementptr inbounds %union.LWLockPadded, ptr %61, i64 40
  call void @LWLockRelease(ptr noundef %62)
  %63 = load ptr, ptr %7, align 8
  call void @ConditionVariableSleep(ptr noundef %63, i32 noundef 134217776)
  store i32 2, ptr %8, align 4
  call void @llvm.lifetime.end.p0(i64 8, ptr %7) #9
  br label %75

64:                                               ; preds = %31
  call void @llvm.lifetime.start.p0(i64 2, ptr %9) #9
  %65 = load i16, ptr %3, align 2
  %66 = getelementptr inbounds nuw %struct.xl_replorigin_drop, ptr %9, i32 0, i32 0
  store i16 %65, ptr %66, align 2
  call void @XLogBeginInsert()
  call void @XLogRegisterData(ptr noundef %9, i32 noundef 2)
  %67 = call i64 @XLogInsert(i8 noundef zeroext 19, i8 noundef zeroext 16)
  call void @llvm.lifetime.end.p0(i64 2, ptr %9) #9
  %68 = load ptr, ptr %6, align 8
  %69 = getelementptr inbounds nuw %struct.ReplicationState, ptr %68, i32 0, i32 0
  store i16 0, ptr %69, align 8
  %70 = load ptr, ptr %6, align 8
  %71 = getelementptr inbounds nuw %struct.ReplicationState, ptr %70, i32 0, i32 1
  store i64 0, ptr %71, align 8
  %72 = load ptr, ptr %6, align 8
  %73 = getelementptr inbounds nuw %struct.ReplicationState, ptr %72, i32 0, i32 2
  store i64 0, ptr %73, align 8
  store i32 3, ptr %8, align 4
  br label %75

74:                                               ; preds = %19
  store i32 0, ptr %8, align 4
  br label %75

75:                                               ; preds = %74, %64, %58
  call void @llvm.lifetime.end.p0(i64 8, ptr %6) #9
  %76 = load i32, ptr %8, align 4
  switch i32 %76, label %85 [
    i32 0, label %77
    i32 2, label %11
    i32 3, label %81
  ]

77:                                               ; preds = %75
  br label %78

78:                                               ; preds = %77
  %79 = load i32, ptr %5, align 4
  %80 = add i32 %79, 1
  store i32 %80, ptr %5, align 4
  br label %15, !llvm.loop !8

81:                                               ; preds = %75, %15
  %82 = load ptr, ptr @MainLWLockArray, align 8
  %83 = getelementptr inbounds %union.LWLockPadded, ptr %82, i64 40
  call void @LWLockRelease(ptr noundef %83)
  %84 = call zeroext i1 @ConditionVariableCancelSleep()
  call void @llvm.lifetime.end.p0(i64 4, ptr %5) #9
  ret void

85:                                               ; preds = %75
  unreachable
}

; Function Attrs: inlinehint nounwind uwtable
define internal i64 @ObjectIdGetDatum(i32 noundef %0) #2 {
  %2 = alloca i32, align 4
  store i32 %0, ptr %2, align 4
  %3 = load i32, ptr %2, align 4
  %4 = zext i32 %3 to i64
  ret i64 %4
}

; Function Attrs: nounwind uwtable
define dso_local void @replorigin_drop_by_name(ptr noundef %0, i1 noundef zeroext %1, i1 noundef zeroext %2) #0 {
  %4 = alloca ptr, align 8
  %5 = alloca i8, align 1
  %6 = alloca i8, align 1
  %7 = alloca i16, align 2
  %8 = alloca ptr, align 8
  %9 = alloca ptr, align 8
  %10 = alloca i32, align 4
  store ptr %0, ptr %4, align 8
  %11 = zext i1 %1 to i8
  store i8 %11, ptr %5, align 1
  %12 = zext i1 %2 to i8
  store i8 %12, ptr %6, align 1
  call void @llvm.lifetime.start.p0(i64 2, ptr %7) #9
  call void @llvm.lifetime.start.p0(i64 8, ptr %8) #9
  call void @llvm.lifetime.start.p0(i64 8, ptr %9) #9
  %13 = call ptr @table_open(i32 noundef 6000, i32 noundef 3)
  store ptr %13, ptr %8, align 8
  %14 = load ptr, ptr %4, align 8
  %15 = load i8, ptr %5, align 1, !range !4, !noundef !5
  %16 = trunc i8 %15 to i1
  %17 = call zeroext i16 @replorigin_by_name(ptr noundef %14, i1 noundef zeroext %16)
  store i16 %17, ptr %7, align 2
  %18 = load i16, ptr %7, align 2
  %19 = zext i16 %18 to i32
  call void @LockSharedObject(i32 noundef 6000, i32 noundef %19, i16 noundef zeroext 0, i32 noundef 8)
  %20 = load i16, ptr %7, align 2
  %21 = zext i16 %20 to i32
  %22 = call i64 @ObjectIdGetDatum(i32 noundef %21)
  %23 = call ptr @SearchSysCache1(i32 noundef 58, i64 noundef %22)
  store ptr %23, ptr %9, align 8
  %24 = load ptr, ptr %9, align 8
  %25 = icmp ne ptr %24, null
  br i1 %25, label %46, label %26

26:                                               ; preds = %3
  %27 = load i8, ptr %5, align 1, !range !4, !noundef !5
  %28 = trunc i8 %27 to i1
  br i1 %28, label %42, label %29

29:                                               ; preds = %26
  br label %30

30:                                               ; preds = %29
  br i1 true, label %31, label %33

31:                                               ; preds = %30
  %32 = call zeroext i1 @errstart_cold(i32 noundef 21, ptr noundef null) #10
  br i1 %32, label %35, label %39

33:                                               ; preds = %30
  %34 = call zeroext i1 @errstart(i32 noundef 21, ptr noundef null)
  br i1 %34, label %35, label %39

35:                                               ; preds = %33, %31
  %36 = load i16, ptr %7, align 2
  %37 = zext i16 %36 to i32
  %38 = call i32 (ptr, ...) @errmsg_internal(ptr noundef @.str.3, i32 noundef %37)
  call void @errfinish(ptr noundef @.str.1, i32 noundef 436, ptr noundef @__func__.replorigin_drop_by_name)
  br label %39

39:                                               ; preds = %35, %33, %31
  unreachable

40:                                               ; No predecessors!
  br label %41

41:                                               ; preds = %40
  br label %42

42:                                               ; preds = %41, %26
  %43 = load i16, ptr %7, align 2
  %44 = zext i16 %43 to i32
  call void @UnlockSharedObject(i32 noundef 6000, i32 noundef %44, i16 noundef zeroext 0, i32 noundef 8)
  %45 = load ptr, ptr %8, align 8
  call void @table_close(ptr noundef %45, i32 noundef 3)
  store i32 1, ptr %10, align 4
  br label %55

46:                                               ; preds = %3
  %47 = load i16, ptr %7, align 2
  %48 = load i8, ptr %6, align 1, !range !4, !noundef !5
  %49 = trunc i8 %48 to i1
  call void @replorigin_state_clear(i16 noundef zeroext %47, i1 noundef zeroext %49)
  %50 = load ptr, ptr %8, align 8
  %51 = load ptr, ptr %9, align 8
  %52 = getelementptr inbounds nuw %struct.HeapTupleData, ptr %51, i32 0, i32 1
  call void @CatalogTupleDelete(ptr noundef %50, ptr noundef %52)
  %53 = load ptr, ptr %9, align 8
  call void @ReleaseSysCache(ptr noundef %53)
  call void @CommandCounterIncrement()
  %54 = load ptr, ptr %8, align 8
  call void @table_close(ptr noundef %54, i32 noundef 0)
  store i32 0, ptr %10, align 4
  br label %55

55:                                               ; preds = %46, %42
  call void @llvm.lifetime.end.p0(i64 8, ptr %9) #9
  call void @llvm.lifetime.end.p0(i64 8, ptr %8) #9
  call void @llvm.lifetime.end.p0(i64 2, ptr %7) #9
  %56 = load i32, ptr %10, align 4
  switch i32 %56, label %58 [
    i32 0, label %57
    i32 1, label %57
  ]

57:                                               ; preds = %55, %55
  ret void

58:                                               ; preds = %55
  unreachable
}