; Function Attrs: nounwind uwtable
define dso_local void @replorigin_drop_by_name(ptr noundef %0, i1 noundef zeroext %1, i1 noundef zeroext %2) local_unnamed_addr #0 {
  %4 = alloca %struct.xl_replorigin_drop, align 2
  %5 = tail call ptr @table_open(i32 noundef 6000, i32 noundef 3) #10
  %6 = tail call zeroext i16 @replorigin_by_name(ptr noundef %0, i1 noundef zeroext %1)
  %7 = zext i16 %6 to i32
  tail call void @LockSharedObject(i32 noundef 6000, i32 noundef %7, i16 noundef zeroext 0, i32 noundef 8) #10
  %8 = zext i16 %6 to i64
  %9 = tail call ptr @SearchSysCache1(i32 noundef 58, i64 noundef %8) #10
  %.not = icmp eq ptr %9, null
  br i1 %.not, label %10, label %15

10:                                               ; preds = %3
  br i1 %1, label %14, label %11

11:                                               ; preds = %10
  %12 = tail call zeroext i1 @errstart_cold(i32 noundef 21, ptr noundef null) #11
  tail call void @llvm.assume(i1 %12)
  %13 = tail call i32 (ptr, ...) @errmsg_internal(ptr noundef nonnull @.str.3, i32 noundef %7) #10
  tail call void @errfinish(ptr noundef nonnull @.str.1, i32 noundef 436, ptr noundef nonnull @__func__.replorigin_drop_by_name) #10
  unreachable

14:                                               ; preds = %10
  tail call void @UnlockSharedObject(i32 noundef 6000, i32 noundef %7, i16 noundef zeroext 0, i32 noundef 8) #10
  tail call void @table_close(ptr noundef %5, i32 noundef 3) #10
  br label %61

15:                                               ; preds = %3
  %16 = load ptr, ptr @MainLWLockArray, align 8
  %17 = getelementptr inbounds nuw i8, ptr %16, i64 5120
  %18 = tail call zeroext i1 @LWLockAcquire(ptr noundef nonnull %17, i32 noundef 0) #10
  %19 = load i32, ptr @max_replication_slots, align 4
  %20 = icmp sgt i32 %19, 0
  br i1 %20, label %.lr.ph.lr.ph.i, label %replorigin_state_clear.exit

.lr.ph.lr.ph.i:                                   ; preds = %15
  br i1 %2, label %.lr.ph.us.i, label %.lr.ph.i

.lr.ph.us.i:                                      ; preds = %.lr.ph.lr.ph.i
  %21 = load ptr, ptr @replication_states, align 8
  %wide.trip.count37.i = zext nneg i32 %19 to i64
  br label %23

22:                                               ; preds = %23
  %indvars.iv.next35.i = add nuw nsw i64 %indvars.iv34.i, 1
  %exitcond38.not.i = icmp eq i64 %indvars.iv.next35.i, %wide.trip.count37.i
  br i1 %exitcond38.not.i, label %replorigin_state_clear.exit, label %23, !llvm.loop !7

23:                                               ; preds = %22, %.lr.ph.us.i
  %indvars.iv34.i = phi i64 [ %indvars.iv.next35.i, %22 ], [ 0, %.lr.ph.us.i ]
  %24 = getelementptr inbounds nuw %struct.ReplicationState, ptr %21, i64 %indvars.iv34.i
  %25 = load i16, ptr %24, align 8
  %26 = icmp eq i16 %25, %6
  br i1 %26, label %27, label %22

27:                                               ; preds = %23
  %28 = getelementptr inbounds nuw i8, ptr %24, i64 24
  %29 = load i32, ptr %28, align 8
  %.not.us.i = icmp eq i32 %29, 0
  br i1 %.not.us.i, label %.thread17.i, label %.split.us.i

.lr.ph.i:                                         ; preds = %.lr.ph.lr.ph.i, %40
  %30 = phi i32 [ %47, %40 ], [ %19, %.lr.ph.lr.ph.i ]
  %31 = load ptr, ptr @replication_states, align 8
  %wide.trip.count.i = zext nneg i32 %30 to i64
  br label %33

32:                                               ; preds = %33
  %indvars.iv.next.i = add nuw nsw i64 %indvars.iv.i, 1
  %exitcond.not.i = icmp eq i64 %indvars.iv.next.i, %wide.trip.count.i
  br i1 %exitcond.not.i, label %replorigin_state_clear.exit, label %33, !llvm.loop !7

33:                                               ; preds = %32, %.lr.ph.i
  %indvars.iv.i = phi i64 [ 0, %.lr.ph.i ], [ %indvars.iv.next.i, %32 ]
  %34 = getelementptr inbounds nuw %struct.ReplicationState, ptr %31, i64 %indvars.iv.i
  %35 = load i16, ptr %34, align 8
  %36 = icmp eq i16 %35, %6
  br i1 %36, label %37, label %32

37:                                               ; preds = %33
  %38 = getelementptr inbounds nuw i8, ptr %34, i64 24
  %39 = load i32, ptr %38, align 8
  %.not.i = icmp eq i32 %39, 0
  br i1 %.not.i, label %.thread17.i, label %40

40:                                               ; preds = %37
  %41 = getelementptr inbounds nuw i8, ptr %34, i64 28
  %42 = load ptr, ptr @MainLWLockArray, align 8
  %43 = getelementptr inbounds nuw i8, ptr %42, i64 5120
  tail call void @LWLockRelease(ptr noundef nonnull %43) #10
  tail call void @ConditionVariableSleep(ptr noundef nonnull %41, i32 noundef 134217776) #10
  %44 = load ptr, ptr @MainLWLockArray, align 8
  %45 = getelementptr inbounds nuw i8, ptr %44, i64 5120
  %46 = tail call zeroext i1 @LWLockAcquire(ptr noundef nonnull %45, i32 noundef 0) #10
  %47 = load i32, ptr @max_replication_slots, align 4
  %48 = icmp sgt i32 %47, 0
  br i1 %48, label %.lr.ph.i, label %replorigin_state_clear.exit

.split.us.i:                                      ; preds = %27
  %49 = tail call zeroext i1 @errstart_cold(i32 noundef 21, ptr noundef null) #11
  tail call void @llvm.assume(i1 %49)
  %50 = tail call i32 @errcode(i32 noundef 100663621) #10
  %51 = load i16, ptr %24, align 8
  %52 = zext i16 %51 to i32
  %53 = load i32, ptr %28, align 8
  %54 = tail call i32 (ptr, ...) @errmsg(ptr noundef nonnull @.str.31, i32 noundef %52, i32 noundef %53) #10
  tail call void @errfinish(ptr noundef nonnull @.str.1, i32 noundef 371, ptr noundef nonnull @__func__.replorigin_state_clear) #10
  unreachable

.thread17.i:                                      ; preds = %37, %27
  %.us-phi.i = phi ptr [ %24, %27 ], [ %34, %37 ]
  call void @llvm.lifetime.start.p0(i64 2, ptr nonnull %4) #10
  store i16 %6, ptr %4, align 2
  tail call void @XLogBeginInsert() #10
  call void @XLogRegisterData(ptr noundef nonnull %4, i32 noundef 2) #10
  %55 = call i64 @XLogInsert(i8 noundef zeroext 19, i8 noundef zeroext 16) #10
  call void @llvm.lifetime.end.p0(i64 2, ptr nonnull %4) #10
  store i16 0, ptr %.us-phi.i, align 8
  %56 = getelementptr inbounds nuw i8, ptr %.us-phi.i, i64 8
  call void @llvm.memset.p0.i64(ptr noundef nonnull align 8 dereferenceable(16) %56, i8 0, i64 16, i1 false)
  br label %replorigin_state_clear.exit

replorigin_state_clear.exit:                      ; preds = %40, %32, %22, %15, %.thread17.i
  %57 = load ptr, ptr @MainLWLockArray, align 8
  %58 = getelementptr inbounds nuw i8, ptr %57, i64 5120
  call void @LWLockRelease(ptr noundef nonnull %58) #10
  %59 = call zeroext i1 @ConditionVariableCancelSleep() #10
  %60 = getelementptr inbounds nuw i8, ptr %9, i64 4
  call void @CatalogTupleDelete(ptr noundef %5, ptr noundef nonnull %60) #10
  call void @ReleaseSysCache(ptr noundef nonnull %9) #10
  call void @CommandCounterIncrement() #10
  call void @table_close(ptr noundef %5, i32 noundef 0) #10
  br label %61

61:                                               ; preds = %replorigin_state_clear.exit, %14
  ret void
}